; Function Attrs: mustprogress nofree norecurse nosync nounwind memory(argmem: readwrite, inaccessiblemem: readwrite) uwtable
define internal void @"_ZN12hb_bit_set_t3op_I4$_13EE16hb_vector_size_tIyLj64EERKS3_S5_"(ptr dead_on_unwind noalias writable writeonly sret(%struct.hb_vector_size_t) align 8 captures(none) %0, ptr noundef nonnull readonly align 8 captures(none) dereferenceable(64) %1, ptr noundef nonnull readonly align 8 captures(none) dereferenceable(64) %2) #13 align 2 {
  %4 = alloca %struct.hb_vector_size_t, align 8
  tail call void @llvm.experimental.noalias.scope.decl(metadata !887)
  call void @llvm.lifetime.start.p0(i64 64, ptr nonnull %4) #18, !noalias !887
  tail call void @llvm.experimental.noalias.scope.decl(metadata !890)
  tail call void @llvm.experimental.noalias.scope.decl(metadata !893)
  br label %5

5:                                                ; preds = %5, %3
  %indvars.iv.i.i.i = phi i64 [ 0, %3 ], [ %indvars.iv.next.i.i.i, %5 ]
  %6 = getelementptr inbounds nuw [8 x i64], ptr %2, i64 0, i64 %indvars.iv.i.i.i
  %.val.i.i.i = load i64, ptr %6, align 8, !tbaa !97, !noalias !896
  %7 = xor i64 %.val.i.i.i, -1
  %8 = getelementptr inbounds nuw [8 x i64], ptr %4, i64 0, i64 %indvars.iv.i.i.i
  store i64 %7, ptr %8, align 8, !tbaa !97, !alias.scope !897, !noalias !887
  %indvars.iv.next.i.i.i = add nuw nsw i64 %indvars.iv.i.i.i, 1
  %exitcond.not.i.i.i = icmp eq i64 %indvars.iv.next.i.i.i, 8
  br i1 %exitcond.not.i.i.i, label %_ZNK16hb_vector_size_tIyLj64EEcoEv.exit.i, label %5, !llvm.loop !898

_ZNK16hb_vector_size_tIyLj64EEcoEv.exit.i:        ; preds = %5
  tail call void @llvm.experimental.noalias.scope.decl(metadata !899)
  tail call void @llvm.experimental.noalias.scope.decl(metadata !902)
  br label %9

9:                                                ; preds = %9, %_ZNK16hb_vector_size_tIyLj64EEcoEv.exit.i
  %indvars.iv.i.i2.i = phi i64 [ 0, %_ZNK16hb_vector_size_tIyLj64EEcoEv.exit.i ], [ %indvars.iv.next.i.i4.i, %9 ]
  %10 = getelementptr inbounds nuw [8 x i64], ptr %1, i64 0, i64 %indvars.iv.i.i2.i
  %11 = getelementptr inbounds nuw [8 x i64], ptr %4, i64 0, i64 %indvars.iv.i.i2.i
  %.val.i.i3.i = load i64, ptr %10, align 8, !tbaa !97, !noalias !905
  %.val7.i.i.i = load i64, ptr %11, align 8, !tbaa !97, !noalias !905
  %12 = and i64 %.val7.i.i.i, %.val.i.i3.i
  %13 = getelementptr inbounds nuw [8 x i64], ptr %0, i64 0, i64 %indvars.iv.i.i2.i
  store i64 %12, ptr %13, align 8, !tbaa !97, !alias.scope !905
  %indvars.iv.next.i.i4.i = add nuw nsw i64 %indvars.iv.i.i2.i, 1
  %exitcond.not.i.i5.i = icmp eq i64 %indvars.iv.next.i.i4.i, 8
  br i1 %exitcond.not.i.i5.i, label %"_ZNK4$_13clI16hb_vector_size_tIyLj64EEEEDTanfp_cofp0_ERKT_S6_.exit", label %9, !llvm.loop !875

"_ZNK4$_13clI16hb_vector_size_tIyLj64EEEEDTanfp_cofp0_ERKT_S6_.exit": ; preds = %9
  call void @llvm.lifetime.end.p0(i64 64, ptr nonnull %4) #18, !noalias !887
  ret void
}